target datalayout = "e-m:e-p270:32:32-p271:32:32-p272:64:64-i64:64-i128:128-f80:128-n8:16:32:64-S128"
target triple = "x86_64-pc-linux-gnu"

%"class.std::__cxx11::basic_string" = type { %"struct.std::__cxx11::basic_string<char>::_Alloc_hider", i64, %union.anon }
%"struct.std::__cxx11::basic_string<char>::_Alloc_hider" = type { ptr }
%union.anon = type { i64, [8 x i8] }

@_ZN6Assimp6Base64L17tableEncodeBase64E = internal constant [66 x i8] c"ABCDEFGHIJKLMNOPQRSTUVWXYZabcdefghijklmnopqrstuvwxyz0123456789+/=\00", align 16

; Function Attrs: mustprogress nounwind uwtable
define linkonce_odr void @_ZNSt11char_traitsIcE6assignERcRKc(ptr noundef nonnull align 1 dereferenceable(1) %0, ptr noundef nonnull align 1 dereferenceable(1) %1) #1 comdat align 2 {
  %3 = alloca ptr, align 8
  %4 = alloca ptr, align 8
  store ptr %0, ptr %3, align 8
  store ptr %1, ptr %4, align 8
  %5 = load ptr, ptr %4, align 8
  %6 = load i8, ptr %5, align 1
  %7 = load ptr, ptr %3, align 8
  store i8 %6, ptr %7, align 1
  ret void
}

; Function Attrs: mustprogress nounwind uwtable
define available_externally void @_ZNSt7__cxx1112basic_stringIcSt11char_traitsIcESaIcEE9_M_lengthEm(ptr noundef nonnull align 8 dereferenceable(32) %0, i64 noundef %1) #1 align 2 {
  %3 = alloca ptr, align 8
  %4 = alloca i64, align 8
  store ptr %0, ptr %3, align 8
  store i64 %1, ptr %4, align 8
  %5 = load ptr, ptr %3, align 8
  %6 = load i64, ptr %4, align 8
  %7 = getelementptr inbounds nuw %"class.std::__cxx11::basic_string", ptr %5, i32 0, i32 1
  store i64 %6, ptr %7, align 8
  ret void
}

; Function Attrs: mustprogress nounwind uwtable
define available_externally noundef ptr @_ZNKSt7__cxx1112basic_stringIcSt11char_traitsIcESaIcEE7_M_dataEv(ptr noundef nonnull align 8 dereferenceable(32) %0) #1 align 2 {
  %2 = alloca ptr, align 8
  store ptr %0, ptr %2, align 8
  %3 = load ptr, ptr %2, align 8
  %4 = getelementptr inbounds nuw %"class.std::__cxx11::basic_string", ptr %3, i32 0, i32 0
  %5 = getelementptr inbounds nuw %"struct.std::__cxx11::basic_string<char>::_Alloc_hider", ptr %4, i32 0, i32 0
  %6 = load ptr, ptr %5, align 8
  ret ptr %6
}

; Function Attrs: noinline noreturn nounwind uwtable
define linkonce_odr hidden void @__clang_call_terminate(ptr noundef %0) #11 comdat {
  %2 = call ptr @__cxa_begin_catch(ptr %0) #16
  call void @_ZSt9terminatev() #17
  unreachable
}

; Function Attrs: mustprogress uwtable
define available_externally void @_ZNSt7__cxx1112basic_stringIcSt11char_traitsIcESaIcEE13_M_set_lengthEm(ptr noundef nonnull align 8 dereferenceable(32) %0, i64 noundef %1) #0 align 2 {
  %3 = alloca ptr, align 8
  %4 = alloca i64, align 8
  %5 = alloca i8, align 1
  store ptr %0, ptr %3, align 8
  store i64 %1, ptr %4, align 8
  %6 = load ptr, ptr %3, align 8
  %7 = load i64, ptr %4, align 8
  call void @_ZNSt7__cxx1112basic_stringIcSt11char_traitsIcESaIcEE9_M_lengthEm(ptr noundef nonnull align 8 dereferenceable(32) %6, i64 noundef %7)
  %8 = call noundef ptr @_ZNKSt7__cxx1112basic_stringIcSt11char_traitsIcESaIcEE7_M_dataEv(ptr noundef nonnull align 8 dereferenceable(32) %6)
  %9 = load i64, ptr %4, align 8
  %10 = getelementptr inbounds nuw i8, ptr %8, i64 %9
  call void @llvm.lifetime.start.p0(i64 1, ptr %5) #16
  store i8 0, ptr %5, align 1
  call void @_ZNSt11char_traitsIcE6assignERcRKc(ptr noundef nonnull align 1 dereferenceable(1) %10, ptr noundef nonnull align 1 dereferenceable(1) %5) #16
  call void @llvm.lifetime.end.p0(i64 1, ptr %5) #16
  ret void
}

; Function Attrs: mustprogress nounwind uwtable
define available_externally noundef nonnull align 1 dereferenceable(1) ptr @_ZNSt7__cxx1112basic_stringIcSt11char_traitsIcESaIcEEixEm(ptr noundef nonnull align 8 dereferenceable(32) %0, i64 noundef %1) #1 align 2 {
  %3 = alloca ptr, align 8
  %4 = alloca i64, align 8
  store ptr %0, ptr %3, align 8
  store i64 %1, ptr %4, align 8
  %5 = load ptr, ptr %3, align 8
  br label %6

6:                                                ; preds = %2
  br label %7

7:                                                ; preds = %6
  %8 = call noundef ptr @_ZNKSt7__cxx1112basic_stringIcSt11char_traitsIcESaIcEE7_M_dataEv(ptr noundef nonnull align 8 dereferenceable(32) %5)
  %9 = load i64, ptr %4, align 8
  %10 = getelementptr inbounds nuw i8, ptr %8, i64 %9
  ret ptr %10
}

; Function Attrs: inlinehint mustprogress nounwind uwtable
define internal noundef signext i8 @_ZN6Assimp6Base64L10EncodeCharEh(i8 noundef zeroext %0) #3 {
  %2 = alloca i8, align 1
  store i8 %0, ptr %2, align 1
  %3 = load i8, ptr %2, align 1
  %4 = zext i8 %3 to i64
  %5 = getelementptr inbounds nuw [66 x i8], ptr @_ZN6Assimp6Base64L17tableEncodeBase64E, i64 0, i64 %4
  %6 = load i8, ptr %5, align 1
  ret i8 %6
}

; Function Attrs: mustprogress uwtable
define available_externally void @_ZNSt7__cxx1112basic_stringIcSt11char_traitsIcESaIcEE6resizeEm(ptr noundef nonnull align 8 dereferenceable(32) %0, i64 noundef %1) #0 align 2 {
  %3 = alloca ptr, align 8
  %4 = alloca i64, align 8
  store ptr %0, ptr %3, align 8
  store i64 %1, ptr %4, align 8
  %5 = load ptr, ptr %3, align 8
  %6 = load i64, ptr %4, align 8
  call void @_ZNSt7__cxx1112basic_stringIcSt11char_traitsIcESaIcEE6resizeEmc(ptr noundef nonnull align 8 dereferenceable(32) %5, i64 noundef %6, i8 noundef signext 0)
  ret void
}

; Function Attrs: mustprogress nounwind uwtable
define available_externally noundef i64 @_ZNKSt7__cxx1112basic_stringIcSt11char_traitsIcESaIcEE4sizeEv(ptr noundef nonnull align 8 dereferenceable(32) %0) #1 align 2 {
  %2 = alloca ptr, align 8
  store ptr %0, ptr %2, align 8
  %3 = load ptr, ptr %2, align 8
  %4 = getelementptr inbounds nuw %"class.std::__cxx11::basic_string", ptr %3, i32 0, i32 1
  %5 = load i64, ptr %4, align 8
  ret i64 %5
}

; Function Attrs: mustprogress nounwind uwtable
define available_externally void @_ZNSt7__cxx1112basic_stringIcSt11char_traitsIcESaIcEE5clearEv(ptr noundef nonnull align 8 dereferenceable(32) %0) #1 align 2 personality ptr @__gxx_personality_v0 {
  %2 = alloca ptr, align 8
  store ptr %0, ptr %2, align 8
  %3 = load ptr, ptr %2, align 8
  invoke void @_ZNSt7__cxx1112basic_stringIcSt11char_traitsIcESaIcEE13_M_set_lengthEm(ptr noundef nonnull align 8 dereferenceable(32) %3, i64 noundef 0)
          to label %4 unwind label %5

4:                                                ; preds = %1
  ret void

5:                                                ; preds = %1
  %6 = landingpad { ptr, i32 }
          catch ptr null
  %7 = extractvalue { ptr, i32 } %6, 0
  call void @__clang_call_terminate(ptr %7) #17
  unreachable
}

; Function Attrs: mustprogress uwtable
define void @_ZN6Assimp6Base646EncodeEPKhmRNSt7__cxx1112basic_stringIcSt11char_traitsIcESaIcEEE(ptr noundef %0, i64 noundef %1, ptr noundef nonnull align 8 dereferenceable(32) %2) #0 {
  %4 = alloca ptr, align 8
  %5 = alloca i64, align 8
  %6 = alloca ptr, align 8
  %7 = alloca i64, align 8
  %8 = alloca i64, align 8
  %9 = alloca i64, align 8
  %10 = alloca i8, align 1
  store ptr %0, ptr %4, align 8
  store i64 %1, ptr %5, align 8
  store ptr %2, ptr %6, align 8
  %11 = load ptr, ptr %4, align 8
  %12 = icmp eq ptr %11, null
  br i1 %12, label %16, label %13

13:                                               ; preds = %3
  %14 = load i64, ptr %5, align 8
  %15 = icmp eq i64 %14, 0
  br i1 %15, label %16, label %18

16:                                               ; preds = %13, %3
  %17 = load ptr, ptr %6, align 8
  call void @_ZNSt7__cxx1112basic_stringIcSt11char_traitsIcESaIcEE5clearEv(ptr noundef nonnull align 8 dereferenceable(32) %17) #16
  br label %158

18:                                               ; preds = %13
  call void @llvm.lifetime.start.p0(i64 8, ptr %7) #16
  %19 = load i64, ptr %5, align 8
  %20 = add i64 %19, 2
  %21 = udiv i64 %20, 3
  %22 = mul i64 %21, 4
  store i64 %22, ptr %7, align 8
  call void @llvm.lifetime.start.p0(i64 8, ptr %8) #16
  %23 = load ptr, ptr %6, align 8
  %24 = call noundef i64 @_ZNKSt7__cxx1112basic_stringIcSt11char_traitsIcESaIcEE4sizeEv(ptr noundef nonnull align 8 dereferenceable(32) %23) #16
  store i64 %24, ptr %8, align 8
  %25 = load ptr, ptr %6, align 8
  %26 = load i64, ptr %8, align 8
  %27 = load i64, ptr %7, align 8
  %28 = add i64 %26, %27
  call void @_ZNSt7__cxx1112basic_stringIcSt11char_traitsIcESaIcEE6resizeEm(ptr noundef nonnull align 8 dereferenceable(32) %25, i64 noundef %28)
  call void @llvm.lifetime.start.p0(i64 8, ptr %9) #16
  store i64 0, ptr %9, align 8
  br label %29

29:                                               ; preds = %154, %18
  %30 = load i64, ptr %9, align 8
  %31 = load i64, ptr %5, align 8
  %32 = icmp ult i64 %30, %31
  br i1 %32, label %34, label %33

33:                                               ; preds = %29
  call void @llvm.lifetime.end.p0(i64 8, ptr %9) #16
  br label %157

34:                                               ; preds = %29
  call void @llvm.lifetime.start.p0(i64 1, ptr %10) #16
  %35 = load ptr, ptr %4, align 8
  %36 = load i64, ptr %9, align 8
  %37 = getelementptr inbounds nuw i8, ptr %35, i64 %36
  %38 = load i8, ptr %37, align 1
  %39 = zext i8 %38 to i32
  %40 = and i32 %39, 252
  %41 = ashr i32 %40, 2
  %42 = trunc i32 %41 to i8
  store i8 %42, ptr %10, align 1
  %43 = load i8, ptr %10, align 1
  %44 = call noundef signext i8 @_ZN6Assimp6Base64L10EncodeCharEh(i8 noundef zeroext %43)
  %45 = load ptr, ptr %6, align 8
  %46 = load i64, ptr %8, align 8
  %47 = add i64 %46, 1
  store i64 %47, ptr %8, align 8
  %48 = call noundef nonnull align 1 dereferenceable(1) ptr @_ZNSt7__cxx1112basic_stringIcSt11char_traitsIcESaIcEEixEm(ptr noundef nonnull align 8 dereferenceable(32) %45, i64 noundef %46)
  store i8 %44, ptr %48, align 1
  %49 = load ptr, ptr %4, align 8
  %50 = load i64, ptr %9, align 8
  %51 = getelementptr inbounds nuw i8, ptr %49, i64 %50
  %52 = load i8, ptr %51, align 1
  %53 = zext i8 %52 to i32
  %54 = and i32 %53, 3
  %55 = shl i32 %54, 4
  %56 = trunc i32 %55 to i8
  store i8 %56, ptr %10, align 1
  %57 = load i64, ptr %9, align 8
  %58 = add i64 %57, 1
  %59 = load i64, ptr %5, align 8
  %60 = icmp ult i64 %58, %59
  br i1 %60, label %61, label %138

61:                                               ; preds = %34
  %62 = load ptr, ptr %4, align 8
  %63 = load i64, ptr %9, align 8
  %64 = add i64 %63, 1
  %65 = getelementptr inbounds nuw i8, ptr %62, i64 %64
  %66 = load i8, ptr %65, align 1
  %67 = zext i8 %66 to i32
  %68 = and i32 %67, 240
  %69 = ashr i32 %68, 4
  %70 = load i8, ptr %10, align 1
  %71 = zext i8 %70 to i32
  %72 = or i32 %71, %69
  %73 = trunc i32 %72 to i8
  store i8 %73, ptr %10, align 1
  %74 = load i8, ptr %10, align 1
  %75 = call noundef signext i8 @_ZN6Assimp6Base64L10EncodeCharEh(i8 noundef zeroext %74)
  %76 = load ptr, ptr %6, align 8
  %77 = load i64, ptr %8, align 8
  %78 = add i64 %77, 1
  store i64 %78, ptr %8, align 8
  %79 = call noundef nonnull align 1 dereferenceable(1) ptr @_ZNSt7__cxx1112basic_stringIcSt11char_traitsIcESaIcEEixEm(ptr noundef nonnull align 8 dereferenceable(32) %76, i64 noundef %77)
  store i8 %75, ptr %79, align 1
  %80 = load ptr, ptr %4, align 8
  %81 = load i64, ptr %9, align 8
  %82 = add i64 %81, 1
  %83 = getelementptr inbounds nuw i8, ptr %80, i64 %82
  %84 = load i8, ptr %83, align 1
  %85 = zext i8 %84 to i32
  %86 = and i32 %85, 15
  %87 = shl i32 %86, 2
  %88 = trunc i32 %87 to i8
  store i8 %88, ptr %10, align 1
  %89 = load i64, ptr %9, align 8
  %90 = add i64 %89, 2
  %91 = load i64, ptr %5, align 8
  %92 = icmp ult i64 %90, %91
  br i1 %92, label %93, label %126

93:                                               ; preds = %61
  %94 = load ptr, ptr %4, align 8
  %95 = load i64, ptr %9, align 8
  %96 = add i64 %95, 2
  %97 = getelementptr inbounds nuw i8, ptr %94, i64 %96
  %98 = load i8, ptr %97, align 1
  %99 = zext i8 %98 to i32
  %100 = and i32 %99, 192
  %101 = ashr i32 %100, 6
  %102 = load i8, ptr %10, align 1
  %103 = zext i8 %102 to i32
  %104 = or i32 %103, %101
  %105 = trunc i32 %104 to i8
  store i8 %105, ptr %10, align 1
  %106 = load i8, ptr %10, align 1
  %107 = call noundef signext i8 @_ZN6Assimp6Base64L10EncodeCharEh(i8 noundef zeroext %106)
  %108 = load ptr, ptr %6, align 8
  %109 = load i64, ptr %8, align 8
  %110 = add i64 %109, 1
  store i64 %110, ptr %8, align 8
  %111 = call noundef nonnull align 1 dereferenceable(1) ptr @_ZNSt7__cxx1112basic_stringIcSt11char_traitsIcESaIcEEixEm(ptr noundef nonnull align 8 dereferenceable(32) %108, i64 noundef %109)
  store i8 %107, ptr %111, align 1
  %112 = load ptr, ptr %4, align 8
  %113 = load i64, ptr %9, align 8
  %114 = add i64 %113, 2
  %115 = getelementptr inbounds nuw i8, ptr %112, i64 %114
  %116 = load i8, ptr %115, align 1
  %117 = zext i8 %116 to i32
  %118 = and i32 %117, 63
  %119 = trunc i32 %118 to i8
  store i8 %119, ptr %10, align 1
  %120 = load i8, ptr %10, align 1
  %121 = call noundef signext i8 @_ZN6Assimp6Base64L10EncodeCharEh(i8 noundef zeroext %120)
  %122 = load ptr, ptr %6, align 8
  %123 = load i64, ptr %8, align 8
  %124 = add i64 %123, 1
  store i64 %124, ptr %8, align 8
  %125 = call noundef nonnull align 1 dereferenceable(1) ptr @_ZNSt7__cxx1112basic_stringIcSt11char_traitsIcESaIcEEixEm(ptr noundef nonnull align 8 dereferenceable(32) %122, i64 noundef %123)
  store i8 %121, ptr %125, align 1
  br label %137

126:                                              ; preds = %61
  %127 = load i8, ptr %10, align 1
  %128 = call noundef signext i8 @_ZN6Assimp6Base64L10EncodeCharEh(i8 noundef zeroext %127)
  %129 = load ptr, ptr %6, align 8
  %130 = load i64, ptr %8, align 8
  %131 = add i64 %130, 1
  store i64 %131, ptr %8, align 8
  %132 = call noundef nonnull align 1 dereferenceable(1) ptr @_ZNSt7__cxx1112basic_stringIcSt11char_traitsIcESaIcEEixEm(ptr noundef nonnull align 8 dereferenceable(32) %129, i64 noundef %130)
  store i8 %128, ptr %132, align 1
  %133 = load ptr, ptr %6, align 8
  %134 = load i64, ptr %8, align 8
  %135 = add i64 %134, 1
  store i64 %135, ptr %8, align 8
  %136 = call noundef nonnull align 1 dereferenceable(1) ptr @_ZNSt7__cxx1112basic_stringIcSt11char_traitsIcESaIcEEixEm(ptr noundef nonnull align 8 dereferenceable(32) %133, i64 noundef %134)
  store i8 61, ptr %136, align 1
  br label %137

137:                                              ; preds = %126, %93
  br label %153

138:                                              ; preds = %34
  %139 = load i8, ptr %10, align 1
  %140 = call noundef signext i8 @_ZN6Assimp6Base64L10EncodeCharEh(i8 noundef zeroext %139)
  %141 = load ptr, ptr %6, align 8
  %142 = load i64, ptr %8, align 8
  %143 = add i64 %142, 1
  store i64 %143, ptr %8, align 8
  %144 = call noundef nonnull align 1 dereferenceable(1) ptr @_ZNSt7__cxx1112basic_stringIcSt11char_traitsIcESaIcEEixEm(ptr noundef nonnull align 8 dereferenceable(32) %141, i64 noundef %142)
  store i8 %140, ptr %144, align 1
  %145 = load ptr, ptr %6, align 8
  %146 = load i64, ptr %8, align 8
  %147 = add i64 %146, 1
  store i64 %147, ptr %8, align 8
  %148 = call noundef nonnull align 1 dereferenceable(1) ptr @_ZNSt7__cxx1112basic_stringIcSt11char_traitsIcESaIcEEixEm(ptr noundef nonnull align 8 dereferenceable(32) %145, i64 noundef %146)
  store i8 61, ptr %148, align 1
  %149 = load ptr, ptr %6, align 8
  %150 = load i64, ptr %8, align 8
  %151 = add i64 %150, 1
  store i64 %151, ptr %8, align 8
  %152 = call noundef nonnull align 1 dereferenceable(1) ptr @_ZNSt7__cxx1112basic_stringIcSt11char_traitsIcESaIcEEixEm(ptr noundef nonnull align 8 dereferenceable(32) %149, i64 noundef %150)
  store i8 61, ptr %152, align 1
  br label %153

153:                                              ; preds = %138, %137
  call void @llvm.lifetime.end.p0(i64 1, ptr %10) #16
  br label %154

154:                                              ; preds = %153
  %155 = load i64, ptr %9, align 8
  %156 = add i64 %155, 3
  store i64 %156, ptr %9, align 8
  br label %29, !llvm.loop !3

157:                                              ; preds = %33
  call void @llvm.lifetime.end.p0(i64 8, ptr %8) #16
  call void @llvm.lifetime.end.p0(i64 8, ptr %7) #16
  br label %158

158:                                              ; preds = %157, %16
  ret void
}