; Function Attrs: mustprogress uwtable
define void @_ZN6Assimp6Base646EncodeEPKhmRNSt7__cxx1112basic_stringIcSt11char_traitsIcESaIcEEE(ptr noundef readonly captures(address_is_null) %0, i64 noundef %1, ptr noundef nonnull align 8 dereferenceable(32) %2) local_unnamed_addr #0 personality ptr @__gxx_personality_v0 {
  %4 = icmp eq ptr %0, null
  %5 = icmp eq i64 %1, 0
  %or.cond = or i1 %4, %5
  br i1 %or.cond, label %6, label %9

6:                                                ; preds = %3
  %7 = getelementptr inbounds nuw i8, ptr %2, i64 8
  store i64 0, ptr %7, align 8
  %8 = load ptr, ptr %2, align 8
  store i8 0, ptr %8, align 1
  br label %.loopexit

9:                                                ; preds = %3
  %10 = add i64 %1, 2
  %11 = udiv i64 %10, 3
  %12 = shl i64 %11, 2
  %13 = getelementptr inbounds nuw i8, ptr %2, i64 8
  %14 = load i64, ptr %13, align 8
  %15 = add i64 %14, %12
  tail call void @_ZNSt7__cxx1112basic_stringIcSt11char_traitsIcESaIcEE6resizeEmc(ptr noundef nonnull align 8 dereferenceable(32) %2, i64 noundef %15, i8 noundef signext 0)
  br label %16

16:                                               ; preds = %9, %77
  %.059 = phi i64 [ 0, %9 ], [ %81, %77 ]
  %.05358 = phi i64 [ %14, %9 ], [ %.1, %77 ]
  %17 = getelementptr inbounds nuw i8, ptr %0, i64 %.059
  %18 = load i8, ptr %17, align 1
  %19 = lshr i8 %18, 2
  %20 = zext nneg i8 %19 to i64
  %21 = getelementptr inbounds nuw [66 x i8], ptr @_ZN6Assimp6Base64L17tableEncodeBase64E, i64 0, i64 %20
  %22 = load i8, ptr %21, align 1
  %23 = add i64 %.05358, 1
  %24 = load ptr, ptr %2, align 8
  %25 = getelementptr inbounds nuw i8, ptr %24, i64 %.05358
  store i8 %22, ptr %25, align 1
  %26 = load i8, ptr %17, align 1
  %27 = shl i8 %26, 4
  %28 = and i8 %27, 48
  %29 = add nuw i64 %.059, 1
  %30 = icmp ult i64 %29, %1
  br i1 %30, label %31, label %68

31:                                               ; preds = %16
  %32 = getelementptr inbounds nuw i8, ptr %0, i64 %29
  %33 = load i8, ptr %32, align 1
  %34 = lshr i8 %33, 4
  %35 = or disjoint i8 %34, %28
  %36 = zext nneg i8 %35 to i64
  %37 = getelementptr inbounds nuw [66 x i8], ptr @_ZN6Assimp6Base64L17tableEncodeBase64E, i64 0, i64 %36
  %38 = load i8, ptr %37, align 1
  %39 = add i64 %.05358, 2
  %40 = load ptr, ptr %2, align 8
  %41 = getelementptr inbounds nuw i8, ptr %40, i64 %23
  store i8 %38, ptr %41, align 1
  %42 = load i8, ptr %32, align 1
  %43 = shl i8 %42, 2
  %44 = and i8 %43, 60
  %45 = add nuw i64 %.059, 2
  %46 = icmp ult i64 %45, %1
  br i1 %46, label %47, label %62

47:                                               ; preds = %31
  %48 = getelementptr inbounds nuw i8, ptr %0, i64 %45
  %49 = load i8, ptr %48, align 1
  %50 = lshr i8 %49, 6
  %51 = or disjoint i8 %50, %44
  %52 = zext nneg i8 %51 to i64
  %53 = getelementptr inbounds nuw [66 x i8], ptr @_ZN6Assimp6Base64L17tableEncodeBase64E, i64 0, i64 %52
  %54 = load i8, ptr %53, align 1
  %55 = load ptr, ptr %2, align 8
  %56 = getelementptr inbounds nuw i8, ptr %55, i64 %39
  store i8 %54, ptr %56, align 1
  %57 = load i8, ptr %48, align 1
  %58 = and i8 %57, 63
  %59 = zext nneg i8 %58 to i64
  %60 = getelementptr inbounds nuw [66 x i8], ptr @_ZN6Assimp6Base64L17tableEncodeBase64E, i64 0, i64 %59
  %61 = load i8, ptr %60, align 1
  br label %77

62:                                               ; preds = %31
  %63 = zext nneg i8 %44 to i64
  %64 = getelementptr inbounds nuw [66 x i8], ptr @_ZN6Assimp6Base64L17tableEncodeBase64E, i64 0, i64 %63
  %65 = load i8, ptr %64, align 4
  %66 = load ptr, ptr %2, align 8
  %67 = getelementptr inbounds nuw i8, ptr %66, i64 %39
  store i8 %65, ptr %67, align 1
  br label %77

68:                                               ; preds = %16
  %69 = zext nneg i8 %28 to i64
  %70 = getelementptr inbounds nuw [66 x i8], ptr @_ZN6Assimp6Base64L17tableEncodeBase64E, i64 0, i64 %69
  %71 = load i8, ptr %70, align 16
  %72 = load ptr, ptr %2, align 8
  %73 = getelementptr inbounds nuw i8, ptr %72, i64 %23
  store i8 %71, ptr %73, align 1
  %74 = load ptr, ptr %2, align 8
  %75 = getelementptr i8, ptr %74, i64 %.05358
  %76 = getelementptr i8, ptr %75, i64 2
  store i8 61, ptr %76, align 1
  br label %77

77:                                               ; preds = %47, %62, %68
  %.sink = phi i8 [ %61, %47 ], [ 61, %62 ], [ 61, %68 ]
  %78 = load ptr, ptr %2, align 8
  %79 = getelementptr i8, ptr %78, i64 %.05358
  %80 = getelementptr i8, ptr %79, i64 3
  store i8 %.sink, ptr %80, align 1
  %.1 = add i64 %.05358, 4
  %81 = add i64 %.059, 3
  %82 = icmp ult i64 %81, %1
  br i1 %82, label %16, label %.loopexit, !llvm.loop !3

.loopexit:                                        ; preds = %77, %6
  ret void
}